; Function Attrs: mustprogress nounwind uwtable
define hidden void @_ZN6google8protobuf8internal12ExtensionSetD2Ev(ptr noundef nonnull readonly align 8 captures(none) dereferenceable(24) %0) unnamed_addr #10 align 2 personality ptr @__gxx_personality_v0 {
  %2 = load ptr, ptr %0, align 8, !tbaa !61
  %3 = icmp eq ptr %2, null
  br i1 %3, label %4, label %_ZN6google8protobuf8internal12ExtensionSet13DeleteFlatMapEPKNS2_8KeyValueEt.exit

4:                                                ; preds = %1
  %5 = getelementptr inbounds nuw i8, ptr %0, i64 10
  %.val = load i16, ptr %5, align 2, !tbaa !66
  %6 = getelementptr inbounds nuw i8, ptr %0, i64 16
  %.val1 = load ptr, ptr %6, align 8
  %7 = icmp slt i16 %.val, 0
  br i1 %7, label %8, label %12, !prof !50

8:                                                ; preds = %4
  %9 = getelementptr inbounds nuw i8, ptr %.val1, i64 24
  %10 = load ptr, ptr %9, align 8, !tbaa !67
  %11 = getelementptr inbounds nuw i8, ptr %.val1, i64 8
  invoke fastcc void @"_ZN6google8protobuf8internal12ExtensionSet7ForEachISt17_Rb_tree_iteratorISt4pairIKiNS2_9ExtensionEEEZNS2_D1EvE3$_0EET0_T_SC_SB_"(ptr %10, ptr nonnull %11)
          to label %"_ZN6google8protobuf8internal12ExtensionSet7ForEachIZNS2_D1EvE3$_0EET_S5_.exit" unwind label %.loopexit.split-lp

12:                                               ; preds = %4
  %13 = zext nneg i16 %.val to i64
  %14 = getelementptr inbounds nuw %"struct.google::protobuf::internal::ExtensionSet::KeyValue", ptr %.val1, i64 %13
  %.not6.i.i = icmp eq i16 %.val, 0
  br i1 %.not6.i.i, label %"_ZN6google8protobuf8internal12ExtensionSet7ForEachIZNS2_D1EvE3$_0EET_S5_.exit", label %.lr.ph.i.i

.lr.ph.i.i:                                       ; preds = %12, %.noexc2
  %.07.i.i = phi ptr [ %16, %.noexc2 ], [ %.val1, %12 ]
  %15 = getelementptr inbounds nuw i8, ptr %.07.i.i, i64 8
  invoke void @_ZN6google8protobuf8internal12ExtensionSet9Extension4FreeEv(ptr noundef nonnull readonly align 8 dereferenceable(24) %15)
          to label %.noexc2 unwind label %.loopexit

.noexc2:                                          ; preds = %.lr.ph.i.i
  %16 = getelementptr inbounds nuw i8, ptr %.07.i.i, i64 32
  %.not.i.i = icmp eq ptr %16, %14
  br i1 %.not.i.i, label %"_ZN6google8protobuf8internal12ExtensionSet7ForEachIZNS2_D1EvE3$_0EET_S5_.exit", label %.lr.ph.i.i, !llvm.loop !72

"_ZN6google8protobuf8internal12ExtensionSet7ForEachIZNS2_D1EvE3$_0EET_S5_.exit": ; preds = %.noexc2, %12, %8
  %17 = load i16, ptr %5, align 2, !tbaa !66
  %18 = icmp slt i16 %17, 0
  %19 = load ptr, ptr %6, align 8, !tbaa !38
  %20 = icmp eq ptr %19, null
  br i1 %18, label %21, label %23, !prof !50

21:                                               ; preds = %"_ZN6google8protobuf8internal12ExtensionSet7ForEachIZNS2_D1EvE3$_0EET_S5_.exit"
  br i1 %20, label %_ZN6google8protobuf8internal12ExtensionSet13DeleteFlatMapEPKNS2_8KeyValueEt.exit, label %22

22:                                               ; preds = %21
  tail call void @_ZNSt3mapIiN6google8protobuf8internal12ExtensionSet9ExtensionESt4lessIiESaISt4pairIKiS4_EEED2Ev(ptr noundef nonnull align 8 dereferenceable(48) %19) #30
  tail call void @_ZdlPv(ptr noundef nonnull %19) #33
  br label %_ZN6google8protobuf8internal12ExtensionSet13DeleteFlatMapEPKNS2_8KeyValueEt.exit

23:                                               ; preds = %"_ZN6google8protobuf8internal12ExtensionSet7ForEachIZNS2_D1EvE3$_0EET_S5_.exit"
  br i1 %20, label %_ZN6google8protobuf8internal12ExtensionSet13DeleteFlatMapEPKNS2_8KeyValueEt.exit, label %24

24:                                               ; preds = %23
  tail call void @_ZdaPv(ptr noundef nonnull %19) #33
  br label %_ZN6google8protobuf8internal12ExtensionSet13DeleteFlatMapEPKNS2_8KeyValueEt.exit

_ZN6google8protobuf8internal12ExtensionSet13DeleteFlatMapEPKNS2_8KeyValueEt.exit: ; preds = %24, %23, %22, %21, %1
  ret void

.loopexit:                                        ; preds = %.lr.ph.i.i
  %lpad.loopexit = landingpad { ptr, i32 }
          catch ptr null
  br label %25

.loopexit.split-lp:                               ; preds = %8
  %lpad.loopexit.split-lp = landingpad { ptr, i32 }
          catch ptr null
  br label %25

25:                                               ; preds = %.loopexit.split-lp, %.loopexit
  %lpad.phi = phi { ptr, i32 } [ %lpad.loopexit, %.loopexit ], [ %lpad.loopexit.split-lp, %.loopexit.split-lp ]
  %26 = extractvalue { ptr, i32 } %lpad.phi, 0
  tail call void @__clang_call_terminate(ptr %26) #29
  unreachable
}